target datalayout = "e-m:e-p270:32:32-p271:32:32-p272:64:64-i64:64-i128:128-f80:128-n8:16:32:64-S128"
target triple = "x86_64-pc-linux-gnu"

%"class.std::basic_string_view" = type { i64, ptr }
%"class.grpc_core::chttp2::FlowControlAction" = type { i8, i8, i8, i8, i8, i32, i32, i32 }
%"class.grpc_core::chttp2::TransportFlowControl" = type { ptr, i64, i8, %"class.grpc_core::BdpEstimator", i64, i64, i64, i64, i64, i32, i32 }
%"class.grpc_core::BdpEstimator" = type { i64, i64, %struct.gpr_timespec, %"class.grpc_core::Duration", i32, i32, double, %"class.std::basic_string_view" }
%struct.gpr_timespec = type { i64, i32, i32 }
%"class.grpc_core::Duration" = type { i64 }

; Function Attrs: inlinehint mustprogress nounwind uwtable
define linkonce_odr noundef nonnull align 8 dereferenceable(8) ptr @_ZSt3minIlERKT_S2_S2_(ptr noundef nonnull align 8 dereferenceable(8) %0, ptr noundef nonnull align 8 dereferenceable(8) %1) #10 comdat {
  %3 = alloca ptr, align 8
  %4 = alloca ptr, align 8
  %5 = alloca ptr, align 8
  store ptr %0, ptr %4, align 8, !tbaa !99
  store ptr %1, ptr %5, align 8, !tbaa !99
  %6 = load ptr, ptr %5, align 8, !tbaa !99
  %7 = load i64, ptr %6, align 8, !tbaa !34
  %8 = load ptr, ptr %4, align 8, !tbaa !99
  %9 = load i64, ptr %8, align 8, !tbaa !34
  %10 = icmp slt i64 %7, %9
  br i1 %10, label %11, label %13

11:                                               ; preds = %2
  %12 = load ptr, ptr %5, align 8, !tbaa !99
  store ptr %12, ptr %3, align 8
  br label %15

13:                                               ; preds = %2
  %14 = load ptr, ptr %4, align 8, !tbaa !99
  store ptr %14, ptr %3, align 8
  br label %15

15:                                               ; preds = %13, %11
  %16 = load ptr, ptr %3, align 8
  ret ptr %16
}

; Function Attrs: inlinehint mustprogress nounwind uwtable
define linkonce_odr noundef nonnull align 8 dereferenceable(8) ptr @_ZSt3maxIlERKT_S2_S2_(ptr noundef nonnull align 8 dereferenceable(8) %0, ptr noundef nonnull align 8 dereferenceable(8) %1) #10 comdat {
  %3 = alloca ptr, align 8
  %4 = alloca ptr, align 8
  %5 = alloca ptr, align 8
  store ptr %0, ptr %4, align 8, !tbaa !99
  store ptr %1, ptr %5, align 8, !tbaa !99
  %6 = load ptr, ptr %4, align 8, !tbaa !99
  %7 = load i64, ptr %6, align 8, !tbaa !34
  %8 = load ptr, ptr %5, align 8, !tbaa !99
  %9 = load i64, ptr %8, align 8, !tbaa !34
  %10 = icmp slt i64 %7, %9
  br i1 %10, label %11, label %13

11:                                               ; preds = %2
  %12 = load ptr, ptr %5, align 8, !tbaa !99
  store ptr %12, ptr %3, align 8
  br label %15

13:                                               ; preds = %2
  %14 = load ptr, ptr %4, align 8, !tbaa !99
  store ptr %14, ptr %3, align 8
  br label %15

15:                                               ; preds = %13, %11
  %16 = load ptr, ptr %3, align 8
  ret ptr %16
}

; Function Attrs: mustprogress nounwind uwtable
define linkonce_odr noundef nonnull align 4 dereferenceable(20) ptr @_ZN9grpc_core6chttp217FlowControlAction25set_send_transport_updateENS1_7UrgencyE(ptr noundef nonnull align 4 dereferenceable(20) %0, i8 noundef zeroext %1) #8 comdat align 2 {
  %3 = alloca ptr, align 8
  %4 = alloca i8, align 1
  store ptr %0, ptr %3, align 8, !tbaa !14
  store i8 %1, ptr %4, align 1, !tbaa !3
  %5 = load ptr, ptr %3, align 8
  %6 = load i8, ptr %4, align 1, !tbaa !3
  %7 = getelementptr inbounds nuw %"class.grpc_core::chttp2::FlowControlAction", ptr %5, i32 0, i32 1
  store i8 %6, ptr %7, align 1, !tbaa !16
  ret ptr %5
}

; Function Attrs: mustprogress uwtable
define noundef i64 @_ZNK9grpc_core6chttp220TransportFlowControl13target_windowEv(ptr noundef nonnull align 8 dereferenceable(144) %0) #4 align 2 {
  %2 = alloca ptr, align 8
  %3 = alloca i64, align 8
  %4 = alloca i64, align 8
  %5 = alloca i64, align 8
  store ptr %0, ptr %2, align 8, !tbaa !44
  %6 = load ptr, ptr %2, align 8
  call void @llvm.lifetime.start.p0(i64 8, ptr %3) #3
  store i64 2147483647, ptr %3, align 8, !tbaa !34
  call void @llvm.lifetime.start.p0(i64 8, ptr %4) #3
  %7 = getelementptr inbounds nuw %"class.grpc_core::chttp2::TransportFlowControl", ptr %6, i32 0, i32 1
  %8 = load i64, ptr %7, align 8, !tbaa !58
  call void @llvm.lifetime.start.p0(i64 8, ptr %5) #3
  store i64 1, ptr %5, align 8, !tbaa !34
  %9 = getelementptr inbounds nuw %"class.grpc_core::chttp2::TransportFlowControl", ptr %6, i32 0, i32 5
  %10 = call noundef nonnull align 8 dereferenceable(8) ptr @_ZSt3maxIlERKT_S2_S2_(ptr noundef nonnull align 8 dereferenceable(8) %5, ptr noundef nonnull align 8 dereferenceable(8) %9)
  %11 = load i64, ptr %10, align 8, !tbaa !34
  %12 = add nsw i64 %8, %11
  store i64 %12, ptr %4, align 8, !tbaa !34
  %13 = call noundef nonnull align 8 dereferenceable(8) ptr @_ZSt3minIlERKT_S2_S2_(ptr noundef nonnull align 8 dereferenceable(8) %3, ptr noundef nonnull align 8 dereferenceable(8) %4)
  %14 = load i64, ptr %13, align 8, !tbaa !34
  %15 = trunc i64 %14 to i32
  %16 = zext i32 %15 to i64
  call void @llvm.lifetime.end.p0(i64 8, ptr %5) #3
  call void @llvm.lifetime.end.p0(i64 8, ptr %4) #3
  call void @llvm.lifetime.end.p0(i64 8, ptr %3) #3
  ret i64 %16
}

; Function Attrs: mustprogress uwtable
define void @_ZN9grpc_core6chttp220TransportFlowControl12UpdateActionENS0_17FlowControlActionE(ptr dead_on_unwind noalias writable sret(%"class.grpc_core::chttp2::FlowControlAction") align 4 %0, ptr noundef nonnull align 8 dereferenceable(144) %1, ptr noundef byval(%"class.grpc_core::chttp2::FlowControlAction") align 8 %2) #4 align 2 {
  %4 = alloca ptr, align 8
  %5 = alloca i64, align 8
  %6 = alloca i64, align 8
  store ptr %1, ptr %4, align 8, !tbaa !44
  %7 = load ptr, ptr %4, align 8
  call void @llvm.lifetime.start.p0(i64 8, ptr %5) #3
  %8 = call noundef i64 @_ZNK9grpc_core6chttp220TransportFlowControl13target_windowEv(ptr noundef nonnull align 8 dereferenceable(144) %7)
  store i64 %8, ptr %5, align 8, !tbaa !34
  call void @llvm.lifetime.start.p0(i64 8, ptr %6) #3
  %9 = load i64, ptr %5, align 8, !tbaa !34
  %10 = add nsw i64 %9, 1
  %11 = sdiv i64 %10, 2
  store i64 %11, ptr %6, align 8, !tbaa !34
  %12 = getelementptr inbounds nuw %"class.grpc_core::chttp2::TransportFlowControl", ptr %7, i32 0, i32 8
  %13 = load i64, ptr %12, align 8, !tbaa !66
  %14 = load i64, ptr %6, align 8, !tbaa !34
  %15 = icmp slt i64 %13, %14
  br i1 %15, label %16, label %18

16:                                               ; preds = %3
  %17 = call noundef nonnull align 4 dereferenceable(20) ptr @_ZN9grpc_core6chttp217FlowControlAction25set_send_transport_updateENS1_7UrgencyE(ptr noundef nonnull align 4 dereferenceable(20) %2, i8 noundef zeroext 1)
  br label %18

18:                                               ; preds = %16, %3
  call void @llvm.memcpy.p0.p0.i64(ptr align 4 %0, ptr align 8 %2, i64 20, i1 false), !tbaa.struct !111
  call void @llvm.lifetime.end.p0(i64 8, ptr %6) #3
  call void @llvm.lifetime.end.p0(i64 8, ptr %5) #3
  ret void
}