; Function Attrs: mustprogress nofree norecurse nosync nounwind willreturn memory(argmem: readwrite) uwtable
define void @_ZN9grpc_core6chttp220TransportFlowControl12UpdateActionENS0_17FlowControlActionE(ptr dead_on_unwind noalias writable writeonly sret(%"class.grpc_core::chttp2::FlowControlAction") align 4 captures(none) initializes((0, 20)) %0, ptr noundef nonnull readonly align 8 captures(none) dereferenceable(144) %1, ptr noundef byval(%"class.grpc_core::chttp2::FlowControlAction") align 8 captures(none) %2) local_unnamed_addr #9 align 2 {
  %4 = getelementptr inbounds nuw i8, ptr %1, i64 8
  %5 = load i64, ptr %4, align 8, !tbaa !58
  %6 = getelementptr inbounds nuw i8, ptr %1, i64 104
  %7 = load i64, ptr %6, align 8, !tbaa !67
  %.sroa.speculated.i = tail call i64 @llvm.smax.i64(i64 %7, i64 1)
  %8 = add nsw i64 %.sroa.speculated.i, %5
  %.sroa.speculated4.i = tail call i64 @llvm.smin.i64(i64 %8, i64 2147483647)
  %9 = and i64 %.sroa.speculated4.i, 4294967295
  %10 = add nuw nsw i64 %9, 1
  %11 = lshr i64 %10, 1
  %12 = getelementptr inbounds nuw i8, ptr %1, i64 128
  %13 = load i64, ptr %12, align 8, !tbaa !64
  %14 = icmp slt i64 %13, %11
  br i1 %14, label %15, label %17

15:                                               ; preds = %3
  %16 = getelementptr inbounds nuw i8, ptr %2, i64 1
  store i8 1, ptr %16, align 1, !tbaa !3
  br label %17

17:                                               ; preds = %15, %3
  call void @llvm.memcpy.p0.p0.i64(ptr noundef nonnull align 4 dereferenceable(20) %0, ptr noundef nonnull align 8 dereferenceable(20) %2, i64 20, i1 false), !tbaa.struct !89
  ret void
}